target datalayout = "e-m:e-p270:32:32-p271:32:32-p272:64:64-i64:64-i128:128-f80:128-n8:16:32:64-S128"
target triple = "x86_64-unknown-linux-gnu"

%"class.icu_75::NFSubstitution" = type { %"class.icu_75::UObject", i32, ptr, ptr }
%"class.icu_75::UObject" = type { ptr }
%"class.icu_75::ModulusSubstitution" = type { %"class.icu_75::NFSubstitution", i64, ptr }

; Function Attrs: mustprogress nounwind uwtable
define linkonce_odr noundef i32 @_ZNK6icu_7514NFSubstitution6getPosEv(ptr noundef nonnull align 8 dereferenceable(32) %this) #0 comdat align 2 {
entry:
  %this.addr = alloca ptr, align 8
  store ptr %this, ptr %this.addr, align 8
  %this1 = load ptr, ptr %this.addr, align 8
  %pos = getelementptr inbounds %"class.icu_75::NFSubstitution", ptr %this1, i32 0, i32 1
  %0 = load i32, ptr %pos, align 8
  ret i32 %0
}

; Function Attrs: mustprogress uwtable
define void @_ZNK6icu_7519ModulusSubstitution14doSubstitutionElRNS_13UnicodeStringEiiR10UErrorCode(ptr noundef nonnull align 8 dereferenceable(48) %this, i64 noundef %number, ptr noundef nonnull align 8 dereferenceable(64) %toInsertInto, i32 noundef %_pos, i32 noundef %recursionCount, ptr noundef nonnull align 4 dereferenceable(4) %status) unnamed_addr #2 align 2 {
entry:
  %this.addr = alloca ptr, align 8
  %number.addr = alloca i64, align 8
  %toInsertInto.addr = alloca ptr, align 8
  %_pos.addr = alloca i32, align 4
  %recursionCount.addr = alloca i32, align 4
  %status.addr = alloca ptr, align 8
  %numberToFormat = alloca i64, align 8
  store ptr %this, ptr %this.addr, align 8
  store i64 %number, ptr %number.addr, align 8
  store ptr %toInsertInto, ptr %toInsertInto.addr, align 8
  store i32 %_pos, ptr %_pos.addr, align 4
  store i32 %recursionCount, ptr %recursionCount.addr, align 4
  store ptr %status, ptr %status.addr, align 8
  %this1 = load ptr, ptr %this.addr, align 8
  %ruleToUse = getelementptr inbounds %"class.icu_75::ModulusSubstitution", ptr %this1, i32 0, i32 2
  %0 = load ptr, ptr %ruleToUse, align 8
  %cmp = icmp eq ptr %0, null
  br i1 %cmp, label %if.then, label %if.else

if.then:                                          ; preds = %entry
  %1 = load i64, ptr %number.addr, align 8
  %2 = load ptr, ptr %toInsertInto.addr, align 8
  %3 = load i32, ptr %_pos.addr, align 4
  %4 = load i32, ptr %recursionCount.addr, align 4
  %5 = load ptr, ptr %status.addr, align 8
  call void @_ZNK6icu_7514NFSubstitution14doSubstitutionElRNS_13UnicodeStringEiiR10UErrorCode(ptr noundef nonnull align 8 dereferenceable(32) %this1, i64 noundef %1, ptr noundef nonnull align 8 dereferenceable(64) %2, i32 noundef %3, i32 noundef %4, ptr noundef nonnull align 4 dereferenceable(4) %5)
  br label %if.end

if.else:                                          ; preds = %entry
  %6 = load i64, ptr %number.addr, align 8
  %vtable = load ptr, ptr %this1, align 8
  %vfn = getelementptr inbounds ptr, ptr %vtable, i64 8
  %7 = load ptr, ptr %vfn, align 8
  %call = call noundef i64 %7(ptr noundef nonnull align 8 dereferenceable(48) %this1, i64 noundef %6)
  store i64 %call, ptr %numberToFormat, align 8
  %ruleToUse2 = getelementptr inbounds %"class.icu_75::ModulusSubstitution", ptr %this1, i32 0, i32 2
  %8 = load ptr, ptr %ruleToUse2, align 8
  %9 = load i64, ptr %numberToFormat, align 8
  %10 = load ptr, ptr %toInsertInto.addr, align 8
  %11 = load i32, ptr %_pos.addr, align 4
  %call3 = call noundef i32 @_ZNK6icu_7514NFSubstitution6getPosEv(ptr noundef nonnull align 8 dereferenceable(32) %this1)
  %add = add nsw i32 %11, %call3
  %12 = load i32, ptr %recursionCount.addr, align 4
  %13 = load ptr, ptr %status.addr, align 8
  call void @_ZNK6icu_756NFRule8doFormatElRNS_13UnicodeStringEiiR10UErrorCode(ptr noundef nonnull align 8 dereferenceable(112) %8, i64 noundef %9, ptr noundef nonnull align 8 dereferenceable(64) %10, i32 noundef %add, i32 noundef %12, ptr noundef nonnull align 4 dereferenceable(4) %13)
  br label %if.end

if.end:                                           ; preds = %if.else, %if.then
  ret void
}