; Function Attrs: mustprogress uwtable
define void @_ZNK6icu_7519ModulusSubstitution14doSubstitutionElRNS_13UnicodeStringEiiR10UErrorCode(ptr noundef nonnull align 8 dereferenceable(48) %this, i64 noundef %number, ptr noundef nonnull align 8 dereferenceable(64) %toInsertInto, i32 noundef %_pos, i32 noundef %recursionCount, ptr noundef nonnull align 4 dereferenceable(4) %status) unnamed_addr #2 align 2 {
entry:
  %ruleToUse = getelementptr inbounds i8, ptr %this, i64 40
  %0 = load ptr, ptr %ruleToUse, align 8
  %cmp = icmp eq ptr %0, null
  br i1 %cmp, label %if.then, label %if.else

if.then:                                          ; preds = %entry
  tail call void @_ZNK6icu_7514NFSubstitution14doSubstitutionElRNS_13UnicodeStringEiiR10UErrorCode(ptr noundef nonnull align 8 dereferenceable(32) %this, i64 noundef %number, ptr noundef nonnull align 8 dereferenceable(64) %toInsertInto, i32 noundef %_pos, i32 noundef %recursionCount, ptr noundef nonnull align 4 dereferenceable(4) %status)
  br label %if.end

if.else:                                          ; preds = %entry
  %vtable = load ptr, ptr %this, align 8
  %vfn = getelementptr inbounds i8, ptr %vtable, i64 64
  %1 = load ptr, ptr %vfn, align 8
  %call = tail call noundef i64 %1(ptr noundef nonnull align 8 dereferenceable(48) %this, i64 noundef %number)
  %2 = load ptr, ptr %ruleToUse, align 8
  %pos.i = getelementptr inbounds i8, ptr %this, i64 8
  %3 = load i32, ptr %pos.i, align 8
  %add = add nsw i32 %3, %_pos
  tail call void @_ZNK6icu_756NFRule8doFormatElRNS_13UnicodeStringEiiR10UErrorCode(ptr noundef nonnull align 8 dereferenceable(112) %2, i64 noundef %call, ptr noundef nonnull align 8 dereferenceable(64) %toInsertInto, i32 noundef %add, i32 noundef %recursionCount, ptr noundef nonnull align 4 dereferenceable(4) %status)
  br label %if.end

if.end:                                           ; preds = %if.else, %if.then
  ret void
}